; Function Attrs: mustprogress nofree norecurse nosync nounwind willreturn memory(none) uwtable
define i32 @Gem_GroupVarsInsert3(i32 noundef %0, i32 noundef %1) local_unnamed_addr #11 {
  %3 = add nsw i32 %1, 1
  %.not = icmp eq i32 %3, 0
  %4 = sub nsw i32 31, %1
  %5 = lshr i32 -1, %4
  %6 = select i1 %.not, i32 0, i32 %5
  %7 = and i32 %6, %0
  %8 = xor i32 %6, -1
  %9 = and i32 %0, %8
  %10 = shl i32 %9, 3
  %11 = shl i32 4, %3
  %12 = or i32 %7, %11
  %13 = or i32 %12, %10
  ret i32 %13
}